target datalayout = "e-m:e-p270:32:32-p271:32:32-p272:64:64-i64:64-i128:128-f80:128-n8:16:32:64-S128"
target triple = "x86_64-pc-linux-gnu"

%struct.slurm_conf_t = type { i64, ptr, i16, ptr, ptr, ptr, ptr, ptr, i16, ptr, ptr, ptr, ptr, ptr, ptr, ptr, i16, ptr, ptr, ptr, ptr, i16, ptr, ptr, ptr, i64, ptr, ptr, ptr, ptr, i16, ptr, ptr, i16, i32, ptr, i32, ptr, i32, i32, ptr, ptr, i64, i64, ptr, i16, i16, ptr, i32, i32, ptr, i32, ptr, i32, i16, i16, i16, ptr, i16, i16, ptr, ptr, i32, i16, i16, ptr, i32, i16, ptr, ptr, ptr, ptr, i16, ptr, ptr, ptr, ptr, i32, ptr, ptr, ptr, ptr, i16, i16, ptr, i32, i32, i32, i16, i16, ptr, ptr, i16, ptr, ptr, i32, i32, i32, i32, i32, i64, i32, i32, i16, ptr, ptr, i32, ptr, ptr, ptr, i16, i32, ptr, ptr, i16, ptr, ptr, i32, i16, ptr, ptr, ptr, ptr, i32, i32, i16, i16, i32, ptr, i16, ptr, i32, i32, i32, i32, i32, i32, ptr, i16, ptr, ptr, i32, i16, ptr, i32, i16, i16, ptr, ptr, ptr, i16, ptr, ptr, ptr, ptr, i16, i16, ptr, i16, ptr, i16, ptr, i16, ptr, i16, ptr, ptr, ptr, ptr, i16, ptr, ptr, ptr, i32, ptr, i32, ptr, ptr, i16, ptr, ptr, i32, i16, ptr, ptr, i16, i16, ptr, i16, ptr, ptr, ptr, i32, ptr, i16, i16, ptr, ptr, ptr, ptr, ptr, ptr, ptr, ptr, i16, i32, i16, ptr, ptr, ptr, ptr, i32, ptr, ptr, ptr, i16, ptr, ptr, ptr, i16, ptr, i16, ptr, i16, i16, ptr }
%struct.xcgroup_t = type { ptr, ptr, ptr, i32, i32, i32 }
%struct.stat = type { i64, i64, i64, i32, i32, i32, i32, i64, i64, i64, i64, %struct.timespec, %struct.timespec, %struct.timespec, [3 x i64] }
%struct.timespec = type { i64, i64 }

@plugin_type = external constant [0 x i8], align 1
@slurm_conf = dso_local global %struct.slurm_conf_t zeroinitializer, align 8
@.str.16 = private unnamed_addr constant [13 x i8] c"cgroup.procs\00", align 1
@.str.18 = private unnamed_addr constant [6 x i8] c"%s/%s\00", align 1
@.str.29 = private unnamed_addr constant [33 x i8] c"unable to read '%s/cgroup.procs'\00", align 1
@.str.30 = private unnamed_addr constant [62 x i8] c"%s: %s: CGROUP: unable to get pids of '%s', file disappeared?\00", align 1
@__func__.common_cgroup_get_pids = private unnamed_addr constant [23 x i8] c"common_cgroup_get_pids\00", align 1
@.str.42 = private unnamed_addr constant [26 x i8] c"%s: failed on path %s: %m\00", align 1
@__func__._cgroup_procs_check = private unnamed_addr constant [20 x i8] c"_cgroup_procs_check\00", align 1

; Function Attrs: nounwind uwtable
define internal ptr @_cgroup_procs_check(ptr noundef %0, i32 noundef %1) #0 {
  %3 = alloca ptr, align 8
  %4 = alloca i32, align 4
  %5 = alloca %struct.stat, align 8
  %6 = alloca ptr, align 8
  store ptr %0, ptr %3, align 8
  store i32 %1, ptr %4, align 4
  call void @llvm.lifetime.start.p0(i64 144, ptr %5) #6
  call void @llvm.lifetime.start.p0(i64 8, ptr %6) #6
  %7 = load ptr, ptr %3, align 8
  %8 = getelementptr inbounds nuw %struct.xcgroup_t, ptr %7, i32 0, i32 2
  %9 = load ptr, ptr %8, align 8
  %10 = call ptr (ptr, ...) @xstrdup_printf(ptr noundef @.str.18, ptr noundef %9, ptr noundef @.str.16)
  store ptr %10, ptr %6, align 8
  %11 = load ptr, ptr %6, align 8
  %12 = call i32 @stat(ptr noundef %11, ptr noundef %5) #6
  %13 = icmp sge i32 %12, 0
  br i1 %13, label %14, label %20

14:                                               ; preds = %2
  %15 = getelementptr inbounds nuw %struct.stat, ptr %5, i32 0, i32 3
  %16 = load i32, ptr %15, align 8
  %17 = load i32, ptr %4, align 4
  %18 = and i32 %16, %17
  %19 = icmp ne i32 %18, 0
  br i1 %19, label %23, label %20

20:                                               ; preds = %14, %2
  %21 = load ptr, ptr %6, align 8
  %22 = call i32 (ptr, ...) @error(ptr noundef @.str.42, ptr noundef @__func__._cgroup_procs_check, ptr noundef %21)
  call void @slurm_xfree(ptr noundef %6)
  br label %23

23:                                               ; preds = %20, %14
  %24 = load ptr, ptr %6, align 8
  call void @llvm.lifetime.end.p0(i64 8, ptr %6) #6
  call void @llvm.lifetime.end.p0(i64 144, ptr %5) #6
  ret ptr %24
}

; Function Attrs: nounwind uwtable
define internal ptr @_cgroup_procs_readable_path(ptr noundef %0) #0 {
  %2 = alloca ptr, align 8
  store ptr %0, ptr %2, align 8
  %3 = load ptr, ptr %2, align 8
  %4 = call ptr @_cgroup_procs_check(ptr noundef %3, i32 noundef 256)
  ret ptr %4
}

; Function Attrs: nounwind uwtable
define dso_local i32 @common_cgroup_get_pids(ptr noundef %0, ptr noundef %1, ptr noundef %2) #0 {
  %4 = alloca i32, align 4
  %5 = alloca ptr, align 8
  %6 = alloca ptr, align 8
  %7 = alloca ptr, align 8
  %8 = alloca i32, align 4
  %9 = alloca ptr, align 8
  %10 = alloca i32, align 4
  store ptr %0, ptr %5, align 8
  store ptr %1, ptr %6, align 8
  store ptr %2, ptr %7, align 8
  call void @llvm.lifetime.start.p0(i64 4, ptr %8) #6
  store i32 -1, ptr %8, align 4
  call void @llvm.lifetime.start.p0(i64 8, ptr %9) #6
  store ptr null, ptr %9, align 8
  %11 = load ptr, ptr %6, align 8
  %12 = icmp eq ptr %11, null
  br i1 %12, label %21, label %13

13:                                               ; preds = %3
  %14 = load ptr, ptr %7, align 8
  %15 = icmp eq ptr %14, null
  br i1 %15, label %21, label %16

16:                                               ; preds = %13
  %17 = load ptr, ptr %5, align 8
  %18 = getelementptr inbounds nuw %struct.xcgroup_t, ptr %17, i32 0, i32 2
  %19 = load ptr, ptr %18, align 8
  %20 = icmp ne ptr %19, null
  br i1 %20, label %22, label %21

21:                                               ; preds = %16, %13, %3
  store i32 -1, ptr %4, align 4
  store i32 1, ptr %10, align 4
  br label %58

22:                                               ; preds = %16
  %23 = load ptr, ptr %5, align 8
  %24 = call ptr @_cgroup_procs_readable_path(ptr noundef %23)
  store ptr %24, ptr %9, align 8
  %25 = load ptr, ptr %9, align 8
  %26 = icmp ne ptr %25, null
  br i1 %26, label %32, label %27

27:                                               ; preds = %22
  %28 = load ptr, ptr %5, align 8
  %29 = getelementptr inbounds nuw %struct.xcgroup_t, ptr %28, i32 0, i32 2
  %30 = load ptr, ptr %29, align 8
  %31 = call i32 (ptr, ...) @error(ptr noundef @.str.29, ptr noundef %30)
  store i32 -1, ptr %4, align 4
  store i32 1, ptr %10, align 4
  br label %58

32:                                               ; preds = %22
  %33 = load ptr, ptr %9, align 8
  %34 = load ptr, ptr %6, align 8
  %35 = load ptr, ptr %7, align 8
  %36 = call i32 @common_file_read_uints(ptr noundef %33, ptr noundef %34, ptr noundef %35, i32 noundef 32)
  store i32 %36, ptr %8, align 4
  %37 = load i32, ptr %8, align 4
  %38 = icmp ne i32 %37, 0
  br i1 %38, label %39, label %56

39:                                               ; preds = %32
  br label %40

40:                                               ; preds = %39
  %41 = load i64, ptr getelementptr inbounds nuw (%struct.slurm_conf_t, ptr @slurm_conf, i32 0, i32 42), align 8
  %42 = and i64 %41, 36028797018963968
  %43 = icmp ne i64 %42, 0
  br i1 %43, label %44, label %53

44:                                               ; preds = %40
  br label %45

45:                                               ; preds = %44
  %46 = call i32 @get_log_level()
  %47 = icmp sge i32 %46, 4
  br i1 %47, label %48, label %50

48:                                               ; preds = %45
  %49 = load ptr, ptr %9, align 8
  call void (i32, ptr, ...) @log_var(i32 noundef 4, ptr noundef @.str.30, ptr noundef @plugin_type, ptr noundef @__func__.common_cgroup_get_pids, ptr noundef %49)
  br label %50

50:                                               ; preds = %48, %45
  br label %51

51:                                               ; preds = %50
  br label %52

52:                                               ; preds = %51
  br label %53

53:                                               ; preds = %52, %40
  br label %54

54:                                               ; preds = %53
  br label %55

55:                                               ; preds = %54
  br label %56

56:                                               ; preds = %55, %32
  call void @slurm_xfree(ptr noundef %9)
  %57 = load i32, ptr %8, align 4
  store i32 %57, ptr %4, align 4
  store i32 1, ptr %10, align 4
  br label %58

58:                                               ; preds = %56, %27, %21
  call void @llvm.lifetime.end.p0(i64 8, ptr %9) #6
  call void @llvm.lifetime.end.p0(i64 4, ptr %8) #6
  %59 = load i32, ptr %4, align 4
  ret i32 %59
}