; Function Attrs: nounwind uwtable
define dso_local range(i32 -1, 1) i32 @common_cgroup_get_pids(ptr noundef readonly captures(none) %0, ptr noundef captures(address_is_null) %1, ptr noundef captures(address_is_null) %2) local_unnamed_addr #0 {
  %4 = alloca %struct.stat, align 8
  %5 = alloca ptr, align 8
  %6 = alloca ptr, align 8
  call void @llvm.lifetime.start.p0(i64 8, ptr nonnull %6) #8
  %7 = icmp eq ptr %1, null
  %8 = icmp eq ptr %2, null
  %or.cond = or i1 %7, %8
  br i1 %or.cond, label %36, label %9

9:                                                ; preds = %3
  %10 = getelementptr inbounds nuw i8, ptr %0, i64 16
  %11 = load ptr, ptr %10, align 8
  %.not = icmp eq ptr %11, null
  br i1 %.not, label %36, label %12

12:                                               ; preds = %9
  call void @llvm.lifetime.start.p0(i64 144, ptr nonnull %4) #8
  call void @llvm.lifetime.start.p0(i64 8, ptr nonnull %5) #8
  %13 = tail call ptr (ptr, ...) @xstrdup_printf(ptr noundef nonnull @.str.18, ptr noundef nonnull %11, ptr noundef nonnull @.str.16) #8
  store ptr %13, ptr %5, align 8
  %14 = call i32 @stat(ptr noundef %13, ptr noundef nonnull %4) #8
  %15 = icmp sgt i32 %14, -1
  br i1 %15, label %16, label %20

16:                                               ; preds = %12
  %17 = getelementptr inbounds nuw i8, ptr %4, i64 24
  %18 = load i32, ptr %17, align 8
  %19 = and i32 %18, 256
  %.not.i.i = icmp eq i32 %19, 0
  br i1 %.not.i.i, label %20, label %_cgroup_procs_readable_path.exit

20:                                               ; preds = %16, %12
  %21 = tail call i32 (ptr, ...) @error(ptr noundef nonnull @.str.42, ptr noundef nonnull @__func__._cgroup_procs_check, ptr noundef %13) #8
  call void @slurm_xfree(ptr noundef nonnull %5) #8
  %.pre.i.i = load ptr, ptr %5, align 8
  br label %_cgroup_procs_readable_path.exit

_cgroup_procs_readable_path.exit:                 ; preds = %16, %20
  %22 = phi ptr [ %.pre.i.i, %20 ], [ %13, %16 ]
  call void @llvm.lifetime.end.p0(i64 8, ptr nonnull %5) #8
  call void @llvm.lifetime.end.p0(i64 144, ptr nonnull %4) #8
  store ptr %22, ptr %6, align 8
  %.not13 = icmp eq ptr %22, null
  br i1 %.not13, label %23, label %26

23:                                               ; preds = %_cgroup_procs_readable_path.exit
  %24 = load ptr, ptr %10, align 8
  %25 = call i32 (ptr, ...) @error(ptr noundef nonnull @.str.29, ptr noundef %24) #8
  br label %36

26:                                               ; preds = %_cgroup_procs_readable_path.exit
  %27 = call i32 @common_file_read_uints(ptr noundef nonnull %22, ptr noundef nonnull %1, ptr noundef nonnull %2, i32 noundef 32)
  %.not14 = icmp eq i32 %27, 0
  br i1 %.not14, label %35, label %28

28:                                               ; preds = %26
  %29 = load i64, ptr getelementptr inbounds nuw (i8, ptr @slurm_conf, i64 320), align 8
  %30 = and i64 %29, 36028797018963968
  %.not15 = icmp eq i64 %30, 0
  br i1 %.not15, label %35, label %31

31:                                               ; preds = %28
  %32 = call i32 @get_log_level() #8
  %33 = icmp sgt i32 %32, 3
  br i1 %33, label %34, label %35

34:                                               ; preds = %31
  call void (i32, ptr, ...) @log_var(i32 noundef 4, ptr noundef nonnull @.str.30, ptr noundef nonnull @plugin_type, ptr noundef nonnull @__func__.common_cgroup_get_pids, ptr noundef nonnull %22) #8
  br label %35

35:                                               ; preds = %28, %34, %31, %26
  call void @slurm_xfree(ptr noundef nonnull %6) #8
  br label %36

36:                                               ; preds = %3, %9, %35, %23
  %.0 = phi i32 [ %27, %35 ], [ -1, %23 ], [ -1, %9 ], [ -1, %3 ]
  call void @llvm.lifetime.end.p0(i64 8, ptr nonnull %6) #8
  ret i32 %.0
}